; Function Attrs: mustprogress nofree norecurse nosync nounwind willreturn memory(argmem: read) uwtable
define internal range(i32 -1, 2) i32 @itemptr_comparator(ptr noundef readonly captures(none) %0, ptr noundef readonly captures(none) %1) #5 {
  %.val = load i16, ptr %0, align 2
  %3 = getelementptr i8, ptr %0, i64 2
  %.val18 = load i16, ptr %3, align 2
  %4 = zext i16 %.val to i32
  %5 = shl nuw i32 %4, 16
  %6 = zext i16 %.val18 to i32
  %7 = or disjoint i32 %5, %6
  %.val19 = load i16, ptr %1, align 2
  %8 = getelementptr i8, ptr %1, i64 2
  %.val20 = load i16, ptr %8, align 2
  %9 = zext i16 %.val19 to i32
  %10 = shl nuw i32 %9, 16
  %11 = zext i16 %.val20 to i32
  %12 = or disjoint i32 %10, %11
  %13 = getelementptr i8, ptr %0, i64 4
  %.val21 = load i16, ptr %13, align 2
  %14 = getelementptr i8, ptr %1, i64 4
  %.val22 = load i16, ptr %14, align 2
  %15 = icmp ult i32 %7, %12
  br i1 %15, label %22, label %16

16:                                               ; preds = %2
  %17 = icmp ugt i32 %7, %12
  br i1 %17, label %22, label %18

18:                                               ; preds = %16
  %19 = icmp ult i16 %.val21, %.val22
  br i1 %19, label %22, label %20

20:                                               ; preds = %18
  %21 = icmp ugt i16 %.val21, %.val22
  %. = zext i1 %21 to i32
  br label %22

22:                                               ; preds = %20, %18, %16, %2
  %.0 = phi i32 [ -1, %2 ], [ 1, %16 ], [ -1, %18 ], [ %., %20 ]
  ret i32 %.0
}